target datalayout = "e-m:e-p270:32:32-p271:32:32-p272:64:64-i64:64-i128:128-f80:128-n8:16:32:64-S128"
target triple = "x86_64-pc-linux-gnu"

; Function Attrs: nounwind uwtable
define internal i32 @bio_bufferevent_read(ptr noundef %0, ptr noundef %1, i32 noundef %2) #0 {
  %4 = alloca i32, align 4
  %5 = alloca ptr, align 8
  %6 = alloca ptr, align 8
  %7 = alloca i32, align 4
  %8 = alloca i32, align 4
  %9 = alloca ptr, align 8
  %10 = alloca i32, align 4
  store ptr %0, ptr %5, align 8
  store ptr %1, ptr %6, align 8
  store i32 %2, ptr %7, align 4
  call void @llvm.lifetime.start.p0(i64 4, ptr %8) #5
  store i32 0, ptr %8, align 4
  call void @llvm.lifetime.start.p0(i64 8, ptr %9) #5
  %11 = load ptr, ptr %5, align 8
  call void @BIO_clear_flags(ptr noundef %11, i32 noundef 15)
  %12 = load ptr, ptr %6, align 8
  %13 = icmp ne ptr %12, null
  br i1 %13, label %15, label %14

14:                                               ; preds = %3
  store i32 0, ptr %4, align 4
  store i32 1, ptr %10, align 4
  br label %37

15:                                               ; preds = %3
  %16 = load ptr, ptr %5, align 8
  %17 = call ptr @BIO_get_data(ptr noundef %16)
  %18 = icmp ne ptr %17, null
  br i1 %18, label %20, label %19

19:                                               ; preds = %15
  store i32 -1, ptr %4, align 4
  store i32 1, ptr %10, align 4
  br label %37

20:                                               ; preds = %15
  %21 = load ptr, ptr %5, align 8
  %22 = call ptr @BIO_get_data(ptr noundef %21)
  %23 = call ptr @bufferevent_get_input(ptr noundef %22)
  store ptr %23, ptr %9, align 8
  %24 = load ptr, ptr %9, align 8
  %25 = call i64 @evbuffer_get_length(ptr noundef %24)
  %26 = icmp eq i64 %25, 0
  br i1 %26, label %27, label %29

27:                                               ; preds = %20
  %28 = load ptr, ptr %5, align 8
  call void @BIO_set_flags(ptr noundef %28, i32 noundef 9)
  store i32 -1, ptr %4, align 4
  store i32 1, ptr %10, align 4
  br label %37

29:                                               ; preds = %20
  %30 = load ptr, ptr %9, align 8
  %31 = load ptr, ptr %6, align 8
  %32 = load i32, ptr %7, align 4
  %33 = sext i32 %32 to i64
  %34 = call i32 @evbuffer_remove(ptr noundef %30, ptr noundef %31, i64 noundef %33)
  store i32 %34, ptr %8, align 4
  br label %35

35:                                               ; preds = %29
  %36 = load i32, ptr %8, align 4
  store i32 %36, ptr %4, align 4
  store i32 1, ptr %10, align 4
  br label %37

37:                                               ; preds = %35, %27, %19, %14
  call void @llvm.lifetime.end.p0(i64 8, ptr %9) #5
  call void @llvm.lifetime.end.p0(i64 4, ptr %8) #5
  %38 = load i32, ptr %4, align 4
  ret i32 %38
}