; Function Attrs: nounwind uwtable
define internal i32 @bio_bufferevent_read(ptr noundef %0, ptr noundef %1, i32 noundef %2) #0 {
  tail call void @BIO_clear_flags(ptr noundef %0, i32 noundef 15) #5
  %.not = icmp eq ptr %1, null
  br i1 %.not, label %15, label %4

4:                                                ; preds = %3
  %5 = tail call ptr @BIO_get_data(ptr noundef %0) #5
  %.not11 = icmp eq ptr %5, null
  br i1 %.not11, label %15, label %6

6:                                                ; preds = %4
  %7 = tail call ptr @BIO_get_data(ptr noundef %0) #5
  %8 = tail call ptr @bufferevent_get_input(ptr noundef %7) #5
  %9 = tail call i64 @evbuffer_get_length(ptr noundef %8) #5
  %10 = icmp eq i64 %9, 0
  br i1 %10, label %11, label %12

11:                                               ; preds = %6
  tail call void @BIO_set_flags(ptr noundef %0, i32 noundef 9) #5
  br label %15

12:                                               ; preds = %6
  %13 = sext i32 %2 to i64
  %14 = tail call i32 @evbuffer_remove(ptr noundef %8, ptr noundef nonnull %1, i64 noundef %13) #5
  br label %15

15:                                               ; preds = %4, %3, %12, %11
  %.0 = phi i32 [ -1, %11 ], [ %14, %12 ], [ 0, %3 ], [ -1, %4 ]
  ret i32 %.0
}